target datalayout = "e-m:e-p270:32:32-p271:32:32-p272:64:64-i64:64-i128:128-f80:128-n8:16:32:64-S128"
target triple = "x86_64-unknown-linux-gnu"

@.str.579 = private unnamed_addr constant [29 x i8] c"../qemu/linux-user/syscall.c\00", align 1
@.str.639 = private unnamed_addr constant [25 x i8] c"host_size >= target_size\00", align 1
@__PRETTY_FUNCTION__.target_to_host_cpu_mask = private unnamed_addr constant [72 x i8] c"int target_to_host_cpu_mask(unsigned long *, size_t, abi_ulong, size_t)\00", align 1

; Function Attrs: nounwind sspstrong uwtable
define internal i64 @ldq_he_p(ptr noundef %ptr) #0 {
entry:
  %ptr.addr = alloca ptr, align 8
  %r = alloca i64, align 8
  store ptr %ptr, ptr %ptr.addr, align 8
  %0 = load ptr, ptr %ptr.addr, align 8
  call void @llvm.memcpy.p0.p0.i64(ptr align 8 %r, ptr align 1 %0, i64 8, i1 false)
  %1 = load i64, ptr %r, align 8
  ret i64 %1
}

; Function Attrs: nounwind sspstrong uwtable
define internal void @unlock_user(ptr noundef %host_ptr, i64 noundef %guest_addr, i64 noundef %len) #0 {
entry:
  %host_ptr.addr = alloca ptr, align 8
  %guest_addr.addr = alloca i64, align 8
  %len.addr = alloca i64, align 8
  store ptr %host_ptr, ptr %host_ptr.addr, align 8
  store i64 %guest_addr, ptr %guest_addr.addr, align 8
  store i64 %len, ptr %len.addr, align 8
  ret void
}

; Function Attrs: nounwind sspstrong uwtable
define internal i64 @ldq_le_p(ptr noundef %ptr) #0 {
entry:
  %ptr.addr = alloca ptr, align 8
  store ptr %ptr, ptr %ptr.addr, align 8
  %0 = load ptr, ptr %ptr.addr, align 8
  %call = call i64 @ldq_he_p(ptr noundef %0)
  ret i64 %call
}

; Function Attrs: nounwind sspstrong uwtable
define internal i32 @target_to_host_cpu_mask(ptr noundef %host_mask, i64 noundef %host_size, i64 noundef %target_addr, i64 noundef %target_size) #0 {
entry:
  %retval = alloca i32, align 4
  %host_mask.addr = alloca ptr, align 8
  %host_size.addr = alloca i64, align 8
  %target_addr.addr = alloca i64, align 8
  %target_size.addr = alloca i64, align 8
  %target_bits = alloca i32, align 4
  %host_bits = alloca i32, align 4
  %target_mask = alloca ptr, align 8
  %i = alloca i32, align 4
  %j = alloca i32, align 4
  %bit = alloca i32, align 4
  %val = alloca i64, align 8
  store ptr %host_mask, ptr %host_mask.addr, align 8
  store i64 %host_size, ptr %host_size.addr, align 8
  store i64 %target_addr, ptr %target_addr.addr, align 8
  store i64 %target_size, ptr %target_size.addr, align 8
  store i32 64, ptr %target_bits, align 4
  store i32 64, ptr %host_bits, align 4
  %0 = load i64, ptr %host_size.addr, align 8
  %1 = load i64, ptr %target_size.addr, align 8
  %cmp = icmp uge i64 %0, %1
  br i1 %cmp, label %if.then, label %if.else

if.then:                                          ; preds = %entry
  br label %if.end

if.else:                                          ; preds = %entry
  call void @__assert_fail(ptr noundef @.str.639, ptr noundef @.str.579, i32 noundef 8576, ptr noundef @__PRETTY_FUNCTION__.target_to_host_cpu_mask) #15
  unreachable

if.end:                                           ; preds = %if.then
  %2 = load i64, ptr %target_addr.addr, align 8
  %3 = load i64, ptr %target_size.addr, align 8
  %call = call ptr @lock_user(i32 noundef 1, i64 noundef %2, i64 noundef %3, i1 noundef zeroext true)
  store ptr %call, ptr %target_mask, align 8
  %4 = load ptr, ptr %target_mask, align 8
  %tobool = icmp ne ptr %4, null
  br i1 %tobool, label %if.end2, label %if.then1

if.then1:                                         ; preds = %if.end
  store i32 -14, ptr %retval, align 4
  br label %return

if.end2:                                          ; preds = %if.end
  %5 = load ptr, ptr %host_mask.addr, align 8
  %6 = load i64, ptr %host_size.addr, align 8
  call void @llvm.memset.p0.i64(ptr align 8 %5, i8 0, i64 %6, i1 false)
  store i32 0, ptr %i, align 4
  br label %for.cond

for.cond:                                         ; preds = %for.inc19, %if.end2
  %7 = load i32, ptr %i, align 4
  %conv = zext i32 %7 to i64
  %8 = load i64, ptr %target_size.addr, align 8
  %div = udiv i64 %8, 8
  %cmp3 = icmp ult i64 %conv, %div
  br i1 %cmp3, label %for.body, label %for.end21

for.body:                                         ; preds = %for.cond
  %9 = load i32, ptr %i, align 4
  %10 = load i32, ptr %target_bits, align 4
  %mul = mul i32 %9, %10
  store i32 %mul, ptr %bit, align 4
  br label %do.body

do.body:                                          ; preds = %for.body
  %11 = load ptr, ptr %target_mask, align 8
  %12 = load i32, ptr %i, align 4
  %idxprom = zext i32 %12 to i64
  %arrayidx = getelementptr i64, ptr %11, i64 %idxprom
  %call5 = call i64 @ldq_le_p(ptr noundef %arrayidx)
  store i64 %call5, ptr %val, align 8
  br label %do.end

do.end:                                           ; preds = %do.body
  store i32 0, ptr %j, align 4
  br label %for.cond6

for.cond6:                                        ; preds = %for.inc, %do.end
  %13 = load i32, ptr %j, align 4
  %14 = load i32, ptr %target_bits, align 4
  %cmp7 = icmp ult i32 %13, %14
  br i1 %cmp7, label %for.body9, label %for.end

for.body9:                                        ; preds = %for.cond6
  %15 = load i64, ptr %val, align 8
  %16 = load i32, ptr %j, align 4
  %sh_prom = zext i32 %16 to i64
  %shl = shl i64 1, %sh_prom
  %and = and i64 %15, %shl
  %tobool10 = icmp ne i64 %and, 0
  br i1 %tobool10, label %if.then11, label %if.end17

if.then11:                                        ; preds = %for.body9
  %17 = load i32, ptr %bit, align 4
  %18 = load i32, ptr %host_bits, align 4
  %rem = urem i32 %17, %18
  %sh_prom12 = zext i32 %rem to i64
  %shl13 = shl i64 1, %sh_prom12
  %19 = load ptr, ptr %host_mask.addr, align 8
  %20 = load i32, ptr %bit, align 4
  %21 = load i32, ptr %host_bits, align 4
  %div14 = udiv i32 %20, %21
  %idxprom15 = zext i32 %div14 to i64
  %arrayidx16 = getelementptr i64, ptr %19, i64 %idxprom15
  %22 = load i64, ptr %arrayidx16, align 8
  %or = or i64 %22, %shl13
  store i64 %or, ptr %arrayidx16, align 8
  br label %if.end17

if.end17:                                         ; preds = %if.then11, %for.body9
  br label %for.inc

for.inc:                                          ; preds = %if.end17
  %23 = load i32, ptr %j, align 4
  %inc = add i32 %23, 1
  store i32 %inc, ptr %j, align 4
  %24 = load i32, ptr %bit, align 4
  %inc18 = add i32 %24, 1
  store i32 %inc18, ptr %bit, align 4
  br label %for.cond6, !llvm.loop !44

for.end:                                          ; preds = %for.cond6
  br label %for.inc19

for.inc19:                                        ; preds = %for.end
  %25 = load i32, ptr %i, align 4
  %inc20 = add i32 %25, 1
  store i32 %inc20, ptr %i, align 4
  br label %for.cond, !llvm.loop !45

for.end21:                                        ; preds = %for.cond
  %26 = load ptr, ptr %target_mask, align 8
  %27 = load i64, ptr %target_addr.addr, align 8
  call void @unlock_user(ptr noundef %26, i64 noundef %27, i64 noundef 0)
  store i32 0, ptr %retval, align 4
  br label %return

return:                                           ; preds = %for.end21, %if.then1
  %28 = load i32, ptr %retval, align 4
  ret i32 %28
}

; Function Attrs: nounwind sspstrong uwtable
define internal i32 @cpu_set_valid(i64 noundef %arg3, i64 noundef %arg4) #0 {
entry:
  %retval = alloca i32, align 4
  %arg3.addr = alloca i64, align 8
  %arg4.addr = alloca i64, align 8
  %ret = alloca i32, align 4
  %i = alloca i32, align 4
  %tmp = alloca i32, align 4
  %host_mask_size = alloca i64, align 8
  %target_mask_size = alloca i64, align 8
  %host_mask = alloca ptr, align 8
  store i64 %arg3, ptr %arg3.addr, align 8
  store i64 %arg4, ptr %arg4.addr, align 8
  store i32 64, ptr %tmp, align 4
  %0 = load i64, ptr %arg3.addr, align 8
  %1 = load i32, ptr %tmp, align 4
  %conv = sext i32 %1 to i64
  %add = add i64 %0, %conv
  %sub = sub i64 %add, 1
  %2 = load i32, ptr %tmp, align 4
  %conv1 = sext i32 %2 to i64
  %div = sdiv i64 %sub, %conv1
  %mul = mul i64 %div, 8
  store i64 %mul, ptr %target_mask_size, align 8
  %3 = load i64, ptr %target_mask_size, align 8
  %add2 = add i64 %3, 7
  %and = and i64 %add2, -8
  store i64 %and, ptr %host_mask_size, align 8
  %4 = load i64, ptr %host_mask_size, align 8
  %5 = alloca i8, i64 %4, align 16
  store ptr %5, ptr %host_mask, align 8
  %6 = load ptr, ptr %host_mask, align 8
  %7 = load i64, ptr %host_mask_size, align 8
  %8 = load i64, ptr %arg4.addr, align 8
  %9 = load i64, ptr %target_mask_size, align 8
  %call = call i32 @target_to_host_cpu_mask(ptr noundef %6, i64 noundef %7, i64 noundef %8, i64 noundef %9)
  store i32 %call, ptr %ret, align 4
  %10 = load i32, ptr %ret, align 4
  %cmp = icmp ne i32 %10, 0
  br i1 %cmp, label %if.then, label %if.end

if.then:                                          ; preds = %entry
  %11 = load i32, ptr %ret, align 4
  store i32 %11, ptr %retval, align 4
  br label %return

if.end:                                           ; preds = %entry
  store i32 0, ptr %i, align 4
  br label %for.cond

for.cond:                                         ; preds = %for.inc, %if.end
  %12 = load i32, ptr %i, align 4
  %conv4 = sext i32 %12 to i64
  %13 = load i64, ptr %host_mask_size, align 8
  %div5 = udiv i64 %13, 8
  %cmp6 = icmp ult i64 %conv4, %div5
  br i1 %cmp6, label %for.body, label %for.end

for.body:                                         ; preds = %for.cond
  %14 = load ptr, ptr %host_mask, align 8
  %15 = load i32, ptr %i, align 4
  %idxprom = sext i32 %15 to i64
  %arrayidx = getelementptr i64, ptr %14, i64 %idxprom
  %16 = load i64, ptr %arrayidx, align 8
  %cmp8 = icmp ne i64 %16, 0
  br i1 %cmp8, label %if.then10, label %if.end11

if.then10:                                        ; preds = %for.body
  store i32 0, ptr %retval, align 4
  br label %return

if.end11:                                         ; preds = %for.body
  br label %for.inc

for.inc:                                          ; preds = %if.end11
  %17 = load i32, ptr %i, align 4
  %inc = add i32 %17, 1
  store i32 %inc, ptr %i, align 4
  br label %for.cond, !llvm.loop !60

for.end:                                          ; preds = %for.cond
  store i32 -22, ptr %retval, align 4
  br label %return

return:                                           ; preds = %for.end, %if.then10, %if.then
  %18 = load i32, ptr %retval, align 4
  ret i32 %18
}