; Function Attrs: nounwind sspstrong uwtable
define internal fastcc range(i32 -22, 1) i32 @cpu_set_valid(i64 noundef range(i64 1, 0) %arg3, i64 noundef %arg4) unnamed_addr #2 {
entry:
  %sub = add i64 %arg3, 63
  %div = sdiv i64 %sub, 64
  %mul = shl nsw i64 %div, 3
  %0 = alloca i8, i64 %mul, align 16
  %call.i = tail call ptr @lock_user(i32 noundef 1, i64 noundef %arg4, i64 noundef %mul, i1 noundef zeroext true) #27
  %tobool.not.i = icmp eq ptr %call.i, null
  br i1 %tobool.not.i, label %return, label %if.end2.i

if.end2.i:                                        ; preds = %entry
  call void @llvm.memset.p0.i64(ptr nonnull align 16 %0, i8 0, i64 range(i64 0, -7) %mul, i1 false)
  %div17.i = and i64 %div, 2305843009213693951
  %sub.off = add i64 %arg3, 126
  %cmp321.not.i = icmp ult i64 %sub.off, 127
  br i1 %cmp321.not.i, label %target_to_host_cpu_mask.exit, label %for.body.i

for.body.i:                                       ; preds = %if.end2.i, %for.inc19.i
  %indvars.iv32.i = phi i64 [ %indvars.iv.next33.i, %for.inc19.i ], [ 0, %if.end2.i ]
  %indvars.iv.i = phi i32 [ %indvars.iv.next.i, %for.inc19.i ], [ 0, %if.end2.i ]
  %1 = zext i32 %indvars.iv.i to i64
  %arrayidx.i = getelementptr i64, ptr %call.i, i64 %indvars.iv32.i
  %arrayidx.val.i = load i64, ptr %arrayidx.i, align 1
  br label %for.body9.i

for.body9.i:                                      ; preds = %for.inc.i, %for.body.i
  %indvars.iv27.i = phi i64 [ 0, %for.body.i ], [ %indvars.iv.next28.i, %for.inc.i ]
  %indvars.iv24.i = phi i64 [ %1, %for.body.i ], [ %indvars.iv.next25.i, %for.inc.i ]
  %shl.i = shl nuw i64 1, %indvars.iv27.i
  %and.i = and i64 %shl.i, %arrayidx.val.i
  %tobool10.not.i = icmp eq i64 %and.i, 0
  br i1 %tobool10.not.i, label %for.inc.i, label %if.then11.i

if.then11.i:                                      ; preds = %for.body9.i
  %2 = and i64 %indvars.iv24.i, 63
  %shl13.i = shl nuw i64 1, %2
  %div1418.i = lshr i64 %indvars.iv24.i, 6
  %idxprom15.i = and i64 %div1418.i, 67108863
  %arrayidx16.i = getelementptr i64, ptr %0, i64 %idxprom15.i
  %3 = load i64, ptr %arrayidx16.i, align 8
  %or.i = or i64 %3, %shl13.i
  store i64 %or.i, ptr %arrayidx16.i, align 8
  br label %for.inc.i

for.inc.i:                                        ; preds = %if.then11.i, %for.body9.i
  %indvars.iv.next28.i = add nuw nsw i64 %indvars.iv27.i, 1
  %indvars.iv.next25.i = add nuw nsw i64 %indvars.iv24.i, 1
  %exitcond.not.i = icmp eq i64 %indvars.iv.next28.i, 64
  br i1 %exitcond.not.i, label %for.inc19.i, label %for.body9.i, !llvm.loop !46

for.inc19.i:                                      ; preds = %for.inc.i
  %indvars.iv.next33.i = add i64 %indvars.iv32.i, 1
  %conv.i = and i64 %indvars.iv.next33.i, 4294967295
  %cmp3.i = icmp samesign ugt i64 %div17.i, %conv.i
  %indvars.iv.next.i = add i32 %indvars.iv.i, 64
  br i1 %cmp3.i, label %for.body.i, label %target_to_host_cpu_mask.exit, !llvm.loop !47

target_to_host_cpu_mask.exit:                     ; preds = %for.inc19.i, %if.end2.i
  %cmp612.not = icmp eq i64 %div17.i, 0
  br i1 %cmp612.not, label %return, label %for.body

for.cond:                                         ; preds = %for.body
  %inc = add i32 %i.013, 1
  %conv4 = sext i32 %inc to i64
  %cmp6 = icmp ugt i64 %div17.i, %conv4
  br i1 %cmp6, label %for.body, label %return, !llvm.loop !56

for.body:                                         ; preds = %target_to_host_cpu_mask.exit, %for.cond
  %conv414 = phi i64 [ %conv4, %for.cond ], [ 0, %target_to_host_cpu_mask.exit ]
  %i.013 = phi i32 [ %inc, %for.cond ], [ 0, %target_to_host_cpu_mask.exit ]
  %arrayidx = getelementptr i64, ptr %0, i64 %conv414
  %4 = load i64, ptr %arrayidx, align 8
  %cmp8.not = icmp eq i64 %4, 0
  br i1 %cmp8.not, label %for.cond, label %return

return:                                           ; preds = %for.body, %for.cond, %target_to_host_cpu_mask.exit, %entry
  %retval.0 = phi i32 [ -14, %entry ], [ -22, %target_to_host_cpu_mask.exit ], [ 0, %for.body ], [ -22, %for.cond ]
  ret i32 %retval.0
}